target datalayout = "e-m:e-p270:32:32-p271:32:32-p272:64:64-i64:64-i128:128-f80:128-n8:16:32:64-S128"
target triple = "x86_64-pc-linux-gnu"

@s_Truths6Neg = internal global [6 x i64] [i64 6148914691236517205, i64 3689348814741910323, i64 1085102592571150095, i64 71777214294589695, i64 281470681808895, i64 4294967295], align 16
@s_Truths6 = internal global [6 x i64] [i64 -6148914691236517206, i64 -3689348814741910324, i64 -1085102592571150096, i64 -71777214294589696, i64 -281470681808896, i64 -4294967296], align 16

; Function Attrs: inlinehint nounwind uwtable
define internal i64 @Abc_Tt6Cofactor1(i64 noundef %0, i32 noundef %1) #3 {
  %3 = alloca i64, align 8
  %4 = alloca i32, align 4
  store i64 %0, ptr %3, align 8, !tbaa !10
  store i32 %1, ptr %4, align 4, !tbaa !8
  %5 = load i64, ptr %3, align 8, !tbaa !10
  %6 = load i32, ptr %4, align 4, !tbaa !8
  %7 = sext i32 %6 to i64
  %8 = getelementptr inbounds [6 x i64], ptr @s_Truths6, i64 0, i64 %7
  %9 = load i64, ptr %8, align 8, !tbaa !10
  %10 = and i64 %5, %9
  %11 = load i64, ptr %3, align 8, !tbaa !10
  %12 = load i32, ptr %4, align 4, !tbaa !8
  %13 = sext i32 %12 to i64
  %14 = getelementptr inbounds [6 x i64], ptr @s_Truths6, i64 0, i64 %13
  %15 = load i64, ptr %14, align 8, !tbaa !10
  %16 = and i64 %11, %15
  %17 = load i32, ptr %4, align 4, !tbaa !8
  %18 = shl i32 1, %17
  %19 = zext i32 %18 to i64
  %20 = lshr i64 %16, %19
  %21 = or i64 %10, %20
  ret i64 %21
}

; Function Attrs: inlinehint nounwind uwtable
define internal i64 @Abc_Tt6Cofactor0(i64 noundef %0, i32 noundef %1) #3 {
  %3 = alloca i64, align 8
  %4 = alloca i32, align 4
  store i64 %0, ptr %3, align 8, !tbaa !10
  store i32 %1, ptr %4, align 4, !tbaa !8
  %5 = load i64, ptr %3, align 8, !tbaa !10
  %6 = load i32, ptr %4, align 4, !tbaa !8
  %7 = sext i32 %6 to i64
  %8 = getelementptr inbounds [6 x i64], ptr @s_Truths6Neg, i64 0, i64 %7
  %9 = load i64, ptr %8, align 8, !tbaa !10
  %10 = and i64 %5, %9
  %11 = load i64, ptr %3, align 8, !tbaa !10
  %12 = load i32, ptr %4, align 4, !tbaa !8
  %13 = sext i32 %12 to i64
  %14 = getelementptr inbounds [6 x i64], ptr @s_Truths6Neg, i64 0, i64 %13
  %15 = load i64, ptr %14, align 8, !tbaa !10
  %16 = and i64 %11, %15
  %17 = load i32, ptr %4, align 4, !tbaa !8
  %18 = shl i32 1, %17
  %19 = zext i32 %18 to i64
  %20 = shl i64 %16, %19
  %21 = or i64 %10, %20
  ret i64 %21
}

; Function Attrs: inlinehint nounwind uwtable
define internal i32 @Abc_Tt6HasVar(i64 noundef %0, i32 noundef %1) #3 {
  %3 = alloca i64, align 8
  %4 = alloca i32, align 4
  store i64 %0, ptr %3, align 8, !tbaa !10
  store i32 %1, ptr %4, align 4, !tbaa !8
  %5 = load i64, ptr %3, align 8, !tbaa !10
  %6 = load i32, ptr %4, align 4, !tbaa !8
  %7 = shl i32 1, %6
  %8 = zext i32 %7 to i64
  %9 = lshr i64 %5, %8
  %10 = load i32, ptr %4, align 4, !tbaa !8
  %11 = sext i32 %10 to i64
  %12 = getelementptr inbounds [6 x i64], ptr @s_Truths6Neg, i64 0, i64 %11
  %13 = load i64, ptr %12, align 8, !tbaa !10
  %14 = and i64 %9, %13
  %15 = load i64, ptr %3, align 8, !tbaa !10
  %16 = load i32, ptr %4, align 4, !tbaa !8
  %17 = sext i32 %16 to i64
  %18 = getelementptr inbounds [6 x i64], ptr @s_Truths6Neg, i64 0, i64 %17
  %19 = load i64, ptr %18, align 8, !tbaa !10
  %20 = and i64 %15, %19
  %21 = icmp ne i64 %14, %20
  %22 = zext i1 %21 to i32
  ret i32 %22
}

; Function Attrs: inlinehint nounwind uwtable
define internal i64 @Abc_Tt6Isop(i64 noundef %0, i64 noundef %1, i32 noundef %2, ptr noundef %3) #3 {
  %5 = alloca i64, align 8
  %6 = alloca i64, align 8
  %7 = alloca i64, align 8
  %8 = alloca i32, align 4
  %9 = alloca ptr, align 8
  %10 = alloca i64, align 8
  %11 = alloca i64, align 8
  %12 = alloca i64, align 8
  %13 = alloca i64, align 8
  %14 = alloca i64, align 8
  %15 = alloca i64, align 8
  %16 = alloca i64, align 8
  %17 = alloca i32, align 4
  %18 = alloca i32, align 4
  store i64 %0, ptr %6, align 8, !tbaa !10
  store i64 %1, ptr %7, align 8, !tbaa !10
  store i32 %2, ptr %8, align 4, !tbaa !8
  store ptr %3, ptr %9, align 8, !tbaa !65
  call void @llvm.lifetime.start.p0(i64 8, ptr %10) #7
  call void @llvm.lifetime.start.p0(i64 8, ptr %11) #7
  call void @llvm.lifetime.start.p0(i64 8, ptr %12) #7
  call void @llvm.lifetime.start.p0(i64 8, ptr %13) #7
  call void @llvm.lifetime.start.p0(i64 8, ptr %14) #7
  call void @llvm.lifetime.start.p0(i64 8, ptr %15) #7
  call void @llvm.lifetime.start.p0(i64 8, ptr %16) #7
  call void @llvm.lifetime.start.p0(i64 4, ptr %17) #7
  %19 = load i64, ptr %6, align 8, !tbaa !10
  %20 = icmp eq i64 %19, 0
  br i1 %20, label %21, label %22

21:                                               ; preds = %4
  store i64 0, ptr %5, align 8
  store i32 1, ptr %18, align 4
  br label %110

22:                                               ; preds = %4
  %23 = load i64, ptr %7, align 8, !tbaa !10
  %24 = icmp eq i64 %23, -1
  br i1 %24, label %25, label %29

25:                                               ; preds = %22
  %26 = load ptr, ptr %9, align 8, !tbaa !65
  %27 = load i32, ptr %26, align 4, !tbaa !8
  %28 = add nsw i32 %27, 1
  store i32 %28, ptr %26, align 4, !tbaa !8
  store i64 -1, ptr %5, align 8
  store i32 1, ptr %18, align 4
  br label %110

29:                                               ; preds = %22
  %30 = load i32, ptr %8, align 4, !tbaa !8
  %31 = sub nsw i32 %30, 1
  store i32 %31, ptr %17, align 4, !tbaa !8
  br label %32

32:                                               ; preds = %47, %29
  %33 = load i32, ptr %17, align 4, !tbaa !8
  %34 = icmp sge i32 %33, 0
  br i1 %34, label %35, label %50

35:                                               ; preds = %32
  %36 = load i64, ptr %6, align 8, !tbaa !10
  %37 = load i32, ptr %17, align 4, !tbaa !8
  %38 = call i32 @Abc_Tt6HasVar(i64 noundef %36, i32 noundef %37)
  %39 = icmp ne i32 %38, 0
  br i1 %39, label %45, label %40

40:                                               ; preds = %35
  %41 = load i64, ptr %7, align 8, !tbaa !10
  %42 = load i32, ptr %17, align 4, !tbaa !8
  %43 = call i32 @Abc_Tt6HasVar(i64 noundef %41, i32 noundef %42)
  %44 = icmp ne i32 %43, 0
  br i1 %44, label %45, label %46

45:                                               ; preds = %40, %35
  br label %50

46:                                               ; preds = %40
  br label %47

47:                                               ; preds = %46
  %48 = load i32, ptr %17, align 4, !tbaa !8
  %49 = add nsw i32 %48, -1
  store i32 %49, ptr %17, align 4, !tbaa !8
  br label %32, !llvm.loop !100

50:                                               ; preds = %45, %32
  %51 = load i64, ptr %6, align 8, !tbaa !10
  %52 = load i32, ptr %17, align 4, !tbaa !8
  %53 = call i64 @Abc_Tt6Cofactor0(i64 noundef %51, i32 noundef %52)
  store i64 %53, ptr %10, align 8, !tbaa !10
  %54 = load i64, ptr %6, align 8, !tbaa !10
  %55 = load i32, ptr %17, align 4, !tbaa !8
  %56 = call i64 @Abc_Tt6Cofactor1(i64 noundef %54, i32 noundef %55)
  store i64 %56, ptr %11, align 8, !tbaa !10
  %57 = load i64, ptr %7, align 8, !tbaa !10
  %58 = load i32, ptr %17, align 4, !tbaa !8
  %59 = call i64 @Abc_Tt6Cofactor0(i64 noundef %57, i32 noundef %58)
  store i64 %59, ptr %12, align 8, !tbaa !10
  %60 = load i64, ptr %7, align 8, !tbaa !10
  %61 = load i32, ptr %17, align 4, !tbaa !8
  %62 = call i64 @Abc_Tt6Cofactor1(i64 noundef %60, i32 noundef %61)
  store i64 %62, ptr %13, align 8, !tbaa !10
  %63 = load i64, ptr %10, align 8, !tbaa !10
  %64 = load i64, ptr %13, align 8, !tbaa !10
  %65 = xor i64 %64, -1
  %66 = and i64 %63, %65
  %67 = load i64, ptr %12, align 8, !tbaa !10
  %68 = load i32, ptr %17, align 4, !tbaa !8
  %69 = load ptr, ptr %9, align 8, !tbaa !65
  %70 = call i64 @Abc_Tt6Isop(i64 noundef %66, i64 noundef %67, i32 noundef %68, ptr noundef %69)
  store i64 %70, ptr %14, align 8, !tbaa !10
  %71 = load i64, ptr %11, align 8, !tbaa !10
  %72 = load i64, ptr %12, align 8, !tbaa !10
  %73 = xor i64 %72, -1
  %74 = and i64 %71, %73
  %75 = load i64, ptr %13, align 8, !tbaa !10
  %76 = load i32, ptr %17, align 4, !tbaa !8
  %77 = load ptr, ptr %9, align 8, !tbaa !65
  %78 = call i64 @Abc_Tt6Isop(i64 noundef %74, i64 noundef %75, i32 noundef %76, ptr noundef %77)
  store i64 %78, ptr %15, align 8, !tbaa !10
  %79 = load i64, ptr %10, align 8, !tbaa !10
  %80 = load i64, ptr %14, align 8, !tbaa !10
  %81 = xor i64 %80, -1
  %82 = and i64 %79, %81
  %83 = load i64, ptr %11, align 8, !tbaa !10
  %84 = load i64, ptr %15, align 8, !tbaa !10
  %85 = xor i64 %84, -1
  %86 = and i64 %83, %85
  %87 = or i64 %82, %86
  %88 = load i64, ptr %12, align 8, !tbaa !10
  %89 = load i64, ptr %13, align 8, !tbaa !10
  %90 = and i64 %88, %89
  %91 = load i32, ptr %17, align 4, !tbaa !8
  %92 = load ptr, ptr %9, align 8, !tbaa !65
  %93 = call i64 @Abc_Tt6Isop(i64 noundef %87, i64 noundef %90, i32 noundef %91, ptr noundef %92)
  store i64 %93, ptr %16, align 8, !tbaa !10
  %94 = load i64, ptr %14, align 8, !tbaa !10
  %95 = load i32, ptr %17, align 4, !tbaa !8
  %96 = sext i32 %95 to i64
  %97 = getelementptr inbounds [6 x i64], ptr @s_Truths6Neg, i64 0, i64 %96
  %98 = load i64, ptr %97, align 8, !tbaa !10
  %99 = and i64 %94, %98
  %100 = load i64, ptr %15, align 8, !tbaa !10
  %101 = load i32, ptr %17, align 4, !tbaa !8
  %102 = sext i32 %101 to i64
  %103 = getelementptr inbounds [6 x i64], ptr @s_Truths6, i64 0, i64 %102
  %104 = load i64, ptr %103, align 8, !tbaa !10
  %105 = and i64 %100, %104
  %106 = or i64 %99, %105
  %107 = load i64, ptr %16, align 8, !tbaa !10
  %108 = or i64 %107, %106
  store i64 %108, ptr %16, align 8, !tbaa !10
  %109 = load i64, ptr %16, align 8, !tbaa !10
  store i64 %109, ptr %5, align 8
  store i32 1, ptr %18, align 4
  br label %110

110:                                              ; preds = %50, %25, %21
  call void @llvm.lifetime.end.p0(i64 4, ptr %17) #7
  call void @llvm.lifetime.end.p0(i64 8, ptr %16) #7
  call void @llvm.lifetime.end.p0(i64 8, ptr %15) #7
  call void @llvm.lifetime.end.p0(i64 8, ptr %14) #7
  call void @llvm.lifetime.end.p0(i64 8, ptr %13) #7
  call void @llvm.lifetime.end.p0(i64 8, ptr %12) #7
  call void @llvm.lifetime.end.p0(i64 8, ptr %11) #7
  call void @llvm.lifetime.end.p0(i64 8, ptr %10) #7
  %111 = load i64, ptr %5, align 8
  ret i64 %111
}